; Function Attrs: mustprogress uwtable
define hidden void @_ZN13rewriter_core7cleanupEv(ptr noundef nonnull align 8 dereferenceable(144) %this) local_unnamed_addr #3 align 2 {
entry:
  tail call void @_ZN13rewriter_core11free_memoryEv(ptr noundef nonnull align 8 dereferenceable(144) %this)
  tail call void @_ZN13rewriter_core16init_cache_stackEv(ptr noundef nonnull align 8 dereferenceable(144) %this)
  %m_root = getelementptr inbounds i8, ptr %this, i64 120
  store ptr null, ptr %m_root, align 8
  %m_num_qvars = getelementptr inbounds i8, ptr %this, i64 128
  store i32 0, ptr %m_num_qvars, align 8
  ret void
}